	.file	"main.c"
	.text
.Ltext0:
	.file 0 "/home/abhishek/projects/p2" "main.c"
	.section	.rodata.str1.1,"aMS",@progbits,1
.LC0:
	.string	"%s %d\n"
	.text
	.p2align 4
	.type	_thread_, @function
_thread_:
.LVL0:
.LFB29:
	.file 1 "main.c"
	.loc 1 15 1 view -0
	.cfi_startproc
	.loc 1 15 1 is_stmt 0 view .LVU1
	endbr64
	.loc 1 16 2 is_stmt 1 view .LVU2
	.loc 1 17 2 view .LVU3
	.loc 1 19 2 view .LVU4
	.loc 1 15 1 is_stmt 0 view .LVU5
	pushq	%r12
	.cfi_def_cfa_offset 16
	.cfi_offset 12, -16
	leaq	.LC0(%rip), %r12
	pushq	%rbp
	.cfi_def_cfa_offset 24
	.cfi_offset 6, -24
	movq	%rdi, %rbp
.LVL1:
	.loc 1 20 2 is_stmt 1 view .LVU6
	.loc 1 20 13 discriminator 1 view .LVU7
	.loc 1 15 1 is_stmt 0 view .LVU8
	pushq	%rbx
	.cfi_def_cfa_offset 32
	.cfi_offset 3, -32
	.loc 1 20 8 view .LVU9
	xorl	%ebx, %ebx
.LVL2:
	.p2align 4,,10
	.p2align 3
.L2:
	.loc 1 21 3 is_stmt 1 view .LVU10
.LBB6:
.LBI6:
	.file 2 "/usr/include/x86_64-linux-gnu/bits/stdio2.h"
	.loc 2 84 1 view .LVU11
.LBB7:
	.loc 2 86 3 view .LVU12
	.loc 2 86 10 is_stmt 0 view .LVU13
	movl	%ebx, %ecx
	movq	%rbp, %rdx
	movq	%r12, %rsi
	movl	$2, %edi
	xorl	%eax, %eax
.LBE7:
.LBE6:
	.loc 1 20 19 discriminator 3 view .LVU14
	addl	$1, %ebx
.LVL3:
.LBB9:
.LBB8:
	.loc 2 86 10 view .LVU15
	call	__printf_chk@PLT
.LVL4:
	.loc 2 86 10 view .LVU16
.LBE8:
.LBE9:
	.loc 1 22 3 is_stmt 1 view .LVU17
	movl	$20000, %edi
	call	us_sleep@PLT
.LVL5:
	.loc 1 23 3 view .LVU18
	call	scheduler_yield@PLT
.LVL6:
	.loc 1 20 19 discriminator 3 view .LVU19
	.loc 1 20 13 discriminator 1 view .LVU20
	cmpl	$100, %ebx
	jne	.L2
	.loc 1 25 1 is_stmt 0 view .LVU21
	popq	%rbx
	.cfi_def_cfa_offset 24
.LVL7:
	.loc 1 25 1 view .LVU22
	popq	%rbp
	.cfi_def_cfa_offset 16
.LVL8:
	.loc 1 25 1 view .LVU23
	popq	%r12
	.cfi_def_cfa_offset 8
	ret
	.cfi_endproc
.LFE29:
	.size	_thread_, .-_thread_
	.section	.rodata.str1.1
.LC1:
	.string	"^"
.LC2:
	.string	"hello"
.LC3:
	.string	"world"
.LC4:
	.string	"love"
.LC5:
	.string	"this"
.LC6:
	.string	"course!"
.LC7:
	.string	"main.c"
.LC8:
	.string	"error: %s:%d: %s\n"
	.section	.text.startup,"ax",@progbits
	.p2align 4
	.globl	main
	.type	main, @function
main:
.LVL9:
.LFB30:
	.loc 1 29 1 is_stmt 1 view -0
	.cfi_startproc
	.loc 1 29 1 is_stmt 0 view .LVU25
	endbr64
	.loc 1 30 2 is_stmt 1 view .LVU26
	.loc 1 30 2 view .LVU27
	.loc 1 31 2 view .LVU28
	.loc 1 31 2 view .LVU29
	.loc 1 33 2 view .LVU30
	.loc 1 29 1 is_stmt 0 view .LVU31
	pushq	%rbx
	.cfi_def_cfa_offset 16
	.cfi_offset 3, -16
	.loc 1 33 6 view .LVU32
	leaq	_thread_(%rip), %rbx
	leaq	.LC2(%rip), %rsi
.LVL10:
	.loc 1 33 6 view .LVU33
	movq	%rbx, %rdi
.LVL11:
	.loc 1 33 6 view .LVU34
	call	scheduler_create@PLT
.LVL12:
	.loc 1 33 5 discriminator 1 view .LVU35
	testl	%eax, %eax
	jne	.L10
	.loc 1 34 6 view .LVU36
	leaq	.LC3(%rip), %rsi
	movq	%rbx, %rdi
	call	scheduler_create@PLT
.LVL13:
	.loc 1 33 42 discriminator 1 view .LVU37
	testl	%eax, %eax
	jne	.L10
	.loc 1 35 6 view .LVU38
	leaq	.LC4(%rip), %rsi
	movq	%rbx, %rdi
	call	scheduler_create@PLT
.LVL14:
	.loc 1 34 42 view .LVU39
	testl	%eax, %eax
	jne	.L10
	.loc 1 36 6 view .LVU40
	leaq	.LC5(%rip), %rsi
	movq	%rbx, %rdi
	call	scheduler_create@PLT
.LVL15:
	.loc 1 35 41 view .LVU41
	testl	%eax, %eax
	jne	.L10
	.loc 1 37 6 view .LVU42
	movq	%rbx, %rdi
	leaq	.LC6(%rip), %rsi
	call	scheduler_create@PLT
.LVL16:
	movl	%eax, %ebx
	.loc 1 36 41 view .LVU43
	testl	%eax, %eax
	jne	.L10
	.loc 1 41 2 is_stmt 1 view .LVU44
	call	scheduler_execute@PLT
.LVL17:
	.loc 1 42 2 view .LVU45
.L6:
	.loc 1 43 1 is_stmt 0 view .LVU46
	movl	%ebx, %eax
	popq	%rbx
	.cfi_remember_state
	.cfi_def_cfa_offset 8
	ret
.L10:
	.cfi_restore_state
	.loc 1 38 3 is_stmt 1 view .LVU47
	.loc 1 38 3 view .LVU48
	xorl	%edi, %edi
	call	safe_strlen@PLT
.LVL18:
.LBB10:
.LBB11:
	.loc 2 79 10 is_stmt 0 view .LVU49
	movl	$38, %r8d
.LBE11:
.LBE10:
	.loc 1 38 3 discriminator 2 view .LVU50
	leaq	.LC1(%rip), %r9
.LBB16:
.LBB12:
	.loc 2 79 10 view .LVU51
	leaq	.LC7(%rip), %rcx
.LBE12:
.LBE16:
	.loc 1 38 3 discriminator 2 view .LVU52
	testq	%rax, %rax
	movl	$0, %eax
.LBB17:
.LBB13:
	.loc 2 79 10 view .LVU53
	leaq	.LC8(%rip), %rdx
	movl	$2, %esi
.LBE13:
.LBE17:
	.loc 1 38 3 discriminator 2 view .LVU54
	cmovne	%rax, %r9
.LVL19:
.LBB18:
.LBI10:
	.loc 2 77 1 is_stmt 1 view .LVU55
.LBB14:
	.loc 2 79 3 view .LVU56
	.loc 2 79 10 is_stmt 0 view .LVU57
	movq	stderr@GOTPCREL(%rip), %rax
.LVL20:
	.loc 2 79 10 view .LVU58
.LBE14:
.LBE18:
	.loc 1 39 10 view .LVU59
	orl	$-1, %ebx
.LBB19:
.LBB15:
	.loc 2 79 10 view .LVU60
	movq	(%rax), %rdi
	xorl	%eax, %eax
.LVL21:
	.loc 2 79 10 view .LVU61
	call	__fprintf_chk@PLT
.LVL22:
	.loc 2 79 10 view .LVU62
.LBE15:
.LBE19:
	.loc 1 38 3 is_stmt 1 discriminator 1 view .LVU63
	.loc 1 39 3 view .LVU64
	.loc 1 39 10 is_stmt 0 view .LVU65
	jmp	.L6
	.cfi_endproc
.LFE30:
	.size	main, .-main
	.text
.Letext0:
	.file 3 "/usr/lib/gcc/x86_64-linux-gnu/13/include/stddef.h"
	.file 4 "/usr/include/x86_64-linux-gnu/bits/types.h"
	.file 5 "/usr/include/x86_64-linux-gnu/bits/types/struct_FILE.h"
	.file 6 "/usr/include/x86_64-linux-gnu/bits/types/FILE.h"
	.file 7 "/usr/include/x86_64-linux-gnu/bits/stdint-uintn.h"
	.file 8 "scheduler.h"
	.file 9 "/usr/include/x86_64-linux-gnu/bits/stdio2-decl.h"
	.file 10 "system.h"
	.file 11 "/usr/include/stdio.h"
	.section	.note.GNU-stack,"",@progbits
	.section	.note.gnu.property,"a"
	.align 8
	.long	1f - 0f
	.long	4f - 1f
	.long	5
0:
	.string	"GNU"
1:
	.align 8
	.long	0xc0000002
	.long	3f - 2f
2:
	.long	0x3
3:
	.align 8
4:
