	.file	"scheduler.c"
	.text
.Ltext0:
	.file 0 "/home/abhishek/projects/p2" "scheduler.c"
	.p2align 4
	.globl	scheduler_create
	.type	scheduler_create, @function
scheduler_create:
.LVL0:
.LFB9:
	.file 1 "scheduler.c"
	.loc 1 46 54 view -0
	.cfi_startproc
	.loc 1 46 54 is_stmt 0 view .LVU1
	endbr64
	.loc 1 47 5 is_stmt 1 view .LVU2
	.loc 1 46 54 is_stmt 0 view .LVU3
	pushq	%r12
	.cfi_def_cfa_offset 16
	.cfi_offset 12, -16
	movq	%rdi, %r12
	.loc 1 47 44 view .LVU4
	movl	$248, %edi
.LVL1:
	.loc 1 46 54 view .LVU5
	pushq	%rbp
	.cfi_def_cfa_offset 24
	.cfi_offset 6, -24
	movq	%rsi, %rbp
	pushq	%rbx
	.cfi_def_cfa_offset 32
	.cfi_offset 3, -32
	.loc 1 47 44 view .LVU6
	call	malloc@PLT
.LVL2:
	.loc 1 48 5 is_stmt 1 view .LVU7
	.loc 1 48 8 is_stmt 0 view .LVU8
	testq	%rax, %rax
	je	.L3
	.loc 1 51 26 view .LVU9
	movq	%r12, 224(%rax)
	movq	%rax, %rbx
	.loc 1 51 5 is_stmt 1 view .LVU10
	.loc 1 52 5 view .LVU11
	.loc 1 52 26 is_stmt 0 view .LVU12
	movq	%rbp, 216(%rax)
	.loc 1 53 5 is_stmt 1 view .LVU13
	.loc 1 53 24 is_stmt 0 view .LVU14
	movl	$0, 232(%rax)
	.loc 1 54 5 is_stmt 1 view .LVU15
	.loc 1 54 56 is_stmt 0 view .LVU16
	call	page_size@PLT
.LVL3:
	.loc 1 54 41 discriminator 1 view .LVU17
	leaq	1048576(%rax), %rdi
	call	malloc@PLT
.LVL4:
	.loc 1 54 31 discriminator 2 view .LVU18
	movq	%rax, 208(%rbx)
	.loc 1 55 5 is_stmt 1 view .LVU19
	.loc 1 55 32 is_stmt 0 view .LVU20
	call	page_size@PLT
.LVL5:
	.loc 1 55 32 discriminator 1 view .LVU21
	movq	208(%rbx), %rdi
	.loc 1 55 32 view .LVU22
	movq	%rax, %rsi
	.loc 1 55 32 discriminator 1 view .LVU23
	call	memory_align@PLT
.LVL6:
	.loc 1 55 30 discriminator 2 view .LVU24
	movq	%rax, 200(%rbx)
	.loc 1 56 5 is_stmt 1 view .LVU25
	.loc 1 56 22 is_stmt 0 view .LVU26
	movq	head@GOTPCREL(%rip), %rax
	movq	(%rax), %rdx
	.loc 1 57 10 view .LVU27
	movq	%rbx, (%rax)
	.loc 1 59 12 view .LVU28
	xorl	%eax, %eax
	.loc 1 56 22 view .LVU29
	movq	%rdx, 240(%rbx)
	.loc 1 57 5 is_stmt 1 view .LVU30
	.loc 1 59 5 view .LVU31
.LVL7:
.L1:
	.loc 1 60 1 is_stmt 0 view .LVU32
	popq	%rbx
	.cfi_remember_state
	.cfi_def_cfa_offset 24
	popq	%rbp
	.cfi_def_cfa_offset 16
.LVL8:
	.loc 1 60 1 view .LVU33
	popq	%r12
	.cfi_def_cfa_offset 8
.LVL9:
	.loc 1 60 1 view .LVU34
	ret
.LVL10:
.L3:
	.cfi_restore_state
	.loc 1 49 16 view .LVU35
	orl	$-1, %eax
.LVL11:
	.loc 1 49 16 view .LVU36
	jmp	.L1
	.cfi_endproc
.LFE9:
	.size	scheduler_create, .-scheduler_create
	.section	.text.unlikely,"ax",@progbits
.LCOLDB0:
	.text
.LHOTB0:
	.p2align 4
	.section	.text.unlikely
.Ltext_cold0:
	.text
	.globl	scheduler_execute
	.type	scheduler_execute, @function
scheduler_execute:
.LFB13:
	.loc 1 102 29 is_stmt 1 view -0
	.cfi_startproc
	endbr64
	.loc 1 103 5 view .LVU38
	movq	ctx@GOTPCREL(%rip), %rdi
	.loc 1 102 29 is_stmt 0 view .LVU39
	pushq	%rbx
	.cfi_def_cfa_offset 16
	.cfi_offset 3, -16
	.loc 1 103 5 view .LVU40
	call	_setjmp@PLT
.LVL12:
	endbr64
	.loc 1 104 5 is_stmt 1 view .LVU41
.LBB8:
.LBI8:
	.loc 1 84 13 view .LVU42
.LBB9:
	.loc 1 85 5 view .LVU43
	.loc 1 86 5 view .LVU44
.LBB10:
.LBI10:
	.loc 1 73 23 view .LVU45
.LBB11:
	.loc 1 74 5 view .LVU46
	.loc 1 74 17 is_stmt 0 view .LVU47
	movq	current_thread@GOTPCREL(%rip), %rax
	movq	(%rax), %rbx
.LVL13:
	.loc 1 75 5 is_stmt 1 view .LVU48
	.loc 1 75 14 view .LVU49
	testq	%rbx, %rbx
	jne	.L10
	jmp	.L8
	.p2align 4,,10
	.p2align 3
.L15:
	.loc 1 79 9 view .LVU50
	.loc 1 79 11 is_stmt 0 view .LVU51
	movq	240(%rbx), %rbx
.LVL14:
	.loc 1 75 14 is_stmt 1 view .LVU52
	testq	%rbx, %rbx
	je	.L14
.L10:
	.loc 1 76 9 view .LVU53
	.loc 1 76 14 is_stmt 0 view .LVU54
	movl	232(%rbx), %eax
	.loc 1 76 12 view .LVU55
	testl	$-3, %eax
	jne	.L15
.LVL15:
	.loc 1 76 12 view .LVU56
.LBE11:
.LBE10:
	.loc 1 87 5 is_stmt 1 view .LVU57
	.loc 1 87 20 is_stmt 0 view .LVU58
	movq	current_thread@GOTPCREL(%rip), %rdx
	movq	%rbx, (%rdx)
	.loc 1 88 5 is_stmt 1 view .LVU59
	.loc 1 88 8 is_stmt 0 view .LVU60
	testl	%eax, %eax
	jne	.L11
	.loc 1 89 9 is_stmt 1 view .LVU61
	.loc 1 91 9 is_stmt 0 view .LVU62
	movq	216(%rbx), %rdi
	.loc 1 89 25 view .LVU63
	addq	$1048576, 200(%rbx)
	.loc 1 90 9 is_stmt 1 view .LVU64
	.loc 1 90 19 is_stmt 0 view .LVU65
	movl	$1, 232(%rbx)
	.loc 1 91 9 is_stmt 1 view .LVU66
	call	*224(%rbx)
.LVL16:
	.loc 1 92 9 view .LVU67
	.loc 1 93 9 is_stmt 0 view .LVU68
	movq	ctx@GOTPCREL(%rip), %rdi
	movl	$1, %esi
	.loc 1 92 19 view .LVU69
	movl	$3, 232(%rbx)
	.loc 1 93 9 is_stmt 1 view .LVU70
	call	longjmp@PLT
.LVL17:
	.p2align 4,,10
	.p2align 3
.L11:
	.loc 1 96 9 view .LVU71
	.loc 1 96 19 is_stmt 0 view .LVU72
	movl	$1, 232(%rbx)
	.loc 1 97 9 is_stmt 1 view .LVU73
	movl	$1, %esi
	movq	%rbx, %rdi
	call	longjmp@PLT
.LVL18:
.L14:
.LBB14:
.LBB12:
	.loc 1 97 9 is_stmt 0 view .LVU74
	jmp	.L8
	.loc 1 97 9 view .LVU75
.LBE12:
.LBE14:
.LBE9:
.LBE8:
	.cfi_endproc
	.section	.text.unlikely
	.cfi_startproc
	.type	scheduler_execute.cold, @function
scheduler_execute.cold:
.LFSB13:
.LBB17:
.LBB16:
.LBB15:
.LBB13:
.L8:
	.cfi_def_cfa_offset 16
	.cfi_offset 3, -16
.LVL19:
	.loc 1 97 9 view -0
.LBE13:
.LBE15:
	.loc 1 87 5 is_stmt 1 view .LVU77
	.loc 1 87 20 is_stmt 0 view .LVU78
	movq	current_thread@GOTPCREL(%rip), %rax
	xorl	%edx, %edx
	movq	%rdx, (%rax)
	.loc 1 88 5 is_stmt 1 view .LVU79
	.loc 1 88 10 is_stmt 0 view .LVU80
	movl	232, %eax
	ud2
.LBE16:
.LBE17:
	.cfi_endproc
.LFE13:
	.text
	.size	scheduler_execute, .-scheduler_execute
	.section	.text.unlikely
	.size	scheduler_execute.cold, .-scheduler_execute.cold
.LCOLDE0:
	.text
.LHOTE0:
	.p2align 4
	.globl	scheduler_yield
	.type	scheduler_yield, @function
scheduler_yield:
.LFB14:
	.loc 1 108 27 is_stmt 1 view -0
	.cfi_startproc
	endbr64
	.loc 1 109 5 view .LVU82
	.loc 1 108 27 is_stmt 0 view .LVU83
	subq	$8, %rsp
	.cfi_def_cfa_offset 16
	.loc 1 109 10 view .LVU84
	movq	current_thread@GOTPCREL(%rip), %rax
	movq	(%rax), %rdi
	.loc 1 109 10 discriminator 1 view .LVU85
	call	_setjmp@PLT
.LVL20:
	endbr64
	.loc 1 109 8 discriminator 2 view .LVU86
	testl	%eax, %eax
	je	.L20
	.loc 1 113 1 view .LVU87
	addq	$8, %rsp
	.cfi_remember_state
	.cfi_def_cfa_offset 8
	ret
.L20:
	.cfi_restore_state
	.loc 1 110 9 is_stmt 1 view .LVU88
	.loc 1 110 32 is_stmt 0 view .LVU89
	movq	current_thread@GOTPCREL(%rip), %rax
	.loc 1 111 9 view .LVU90
	movq	ctx@GOTPCREL(%rip), %rdi
	movl	$1, %esi
	.loc 1 110 32 view .LVU91
	movq	(%rax), %rax
	movl	$2, 232(%rax)
	.loc 1 111 9 is_stmt 1 view .LVU92
	call	longjmp@PLT
.LVL21:
	.cfi_endproc
.LFE14:
	.size	scheduler_yield, .-scheduler_yield
	.globl	ctx
	.bss
	.align 32
	.type	ctx, @object
	.size	ctx, 200
ctx:
	.zero	200
	.globl	current_thread
	.align 8
	.type	current_thread, @object
	.size	current_thread, 8
current_thread:
	.zero	8
	.globl	head
	.align 8
	.type	head, @object
	.size	head, 8
head:
	.zero	8
	.text
.Letext0:
	.section	.text.unlikely
.Letext_cold0:
	.file 2 "/usr/lib/gcc/x86_64-linux-gnu/13/include/stddef.h"
	.file 3 "/usr/include/x86_64-linux-gnu/bits/setjmp.h"
	.file 4 "/usr/include/x86_64-linux-gnu/bits/types/__sigset_t.h"
	.file 5 "/usr/include/x86_64-linux-gnu/bits/types/struct___jmp_buf_tag.h"
	.file 6 "/usr/include/setjmp.h"
	.file 7 "scheduler.h"
	.file 8 "system.h"
	.file 9 "/usr/include/stdlib.h"
	.section	.note.GNU-stack,"",@progbits
	.section	.note.gnu.property,"a"
	.align 8
	.long	1f - 0f
	.long	4f - 1f
	.long	5
0:
	.string	"GNU"
1:
	.align 8
	.long	0xc0000002
	.long	3f - 2f
2:
	.long	0x3
3:
	.align 8
4:
